; ModuleID = '17/1198.c'
source_filename = "17/1198.c"
target datalayout = "e-m:e-p270:32:32-p271:32:32-p272:64:64-i64:64-f80:128-n8:16:32:64-S128"
target triple = "x86_64-pc-linux-gnu"

; Function Attrs: noinline nounwind uwtable
define dso_local i32 @main() #0 {
  %1 = alloca i32, align 4
  %2 = alloca [101 x i8], align 16
  %3 = alloca i32, align 4
  %4 = alloca i32, align 4
  %5 = alloca i32, align 4
  %6 = alloca i32, align 4
  %7 = alloca i32, align 4
  %8 = alloca [101 x i32], align 16
  %9 = alloca [101 x i32], align 16
  store i32 0, i32* %1, align 4
  br label %10

10:                                               ; preds = %159, %0
  %11 = getelementptr inbounds [101 x i8], [101 x i8]* %2, i64 0, i64 0
  %12 = call i32 (i8*, ...) bitcast (i32 (...)* @gets to i32 (i8*, ...)*)(i8* %11)
  %13 = icmp ne i32 %12, 0
  br i1 %13, label %14, label %162

14:                                               ; preds = %10
  store i32 0, i32* %5, align 4
  store i32 0, i32* %6, align 4
  %15 = getelementptr inbounds [101 x i8], [101 x i8]* %2, i64 0, i64 0
  %16 = call i32 @puts(i8* %15)
  %17 = getelementptr inbounds [101 x i8], [101 x i8]* %2, i64 0, i64 0
  %18 = call i64 @strlen(i8* %17) #3
  %19 = trunc i64 %18 to i32
  store i32 %19, i32* %7, align 4
  store i32 0, i32* %4, align 4
  br label %20

20:                                               ; preds = %65, %14
  %21 = load i32, i32* %4, align 4
  %22 = load i32, i32* %7, align 4
  %23 = icmp slt i32 %21, %22
  br i1 %23, label %24, label %68

24:                                               ; preds = %20
  %25 = load i32, i32* %4, align 4
  %26 = sext i32 %25 to i64
  %27 = getelementptr inbounds [101 x i8], [101 x i8]* %2, i64 0, i64 %26
  %28 = load i8, i8* %27, align 1
  %29 = sext i8 %28 to i32
  %30 = icmp ne i32 %29, 40
  br i1 %30, label %31, label %42

31:                                               ; preds = %24
  %32 = load i32, i32* %4, align 4
  %33 = sext i32 %32 to i64
  %34 = getelementptr inbounds [101 x i8], [101 x i8]* %2, i64 0, i64 %33
  %35 = load i8, i8* %34, align 1
  %36 = sext i8 %35 to i32
  %37 = icmp ne i32 %36, 41
  br i1 %37, label %38, label %42

38:                                               ; preds = %31
  %39 = load i32, i32* %4, align 4
  %40 = sext i32 %39 to i64
  %41 = getelementptr inbounds [101 x i8], [101 x i8]* %2, i64 0, i64 %40
  store i8 32, i8* %41, align 1
  br label %64

42:                                               ; preds = %31, %24
  %43 = load i32, i32* %4, align 4
  %44 = sext i32 %43 to i64
  %45 = getelementptr inbounds [101 x i8], [101 x i8]* %2, i64 0, i64 %44
  %46 = load i8, i8* %45, align 1
  %47 = sext i8 %46 to i32
  %48 = icmp eq i32 %47, 40
  br i1 %48, label %49, label %56

49:                                               ; preds = %42
  %50 = load i32, i32* %5, align 4
  %51 = add nsw i32 %50, 1
  store i32 %51, i32* %5, align 4
  %52 = load i32, i32* %4, align 4
  %53 = load i32, i32* %5, align 4
  %54 = sext i32 %53 to i64
  %55 = getelementptr inbounds [101 x i32], [101 x i32]* %8, i64 0, i64 %54
  store i32 %52, i32* %55, align 4
  br label %63

56:                                               ; preds = %42
  %57 = load i32, i32* %6, align 4
  %58 = add nsw i32 %57, 1
  store i32 %58, i32* %6, align 4
  %59 = load i32, i32* %4, align 4
  %60 = load i32, i32* %6, align 4
  %61 = sext i32 %60 to i64
  %62 = getelementptr inbounds [101 x i32], [101 x i32]* %9, i64 0, i64 %61
  store i32 %59, i32* %62, align 4
  br label %63

63:                                               ; preds = %56, %49
  br label %64

64:                                               ; preds = %63, %38
  br label %65

65:                                               ; preds = %64
  %66 = load i32, i32* %4, align 4
  %67 = add nsw i32 %66, 1
  store i32 %67, i32* %4, align 4
  br label %20

68:                                               ; preds = %20
  store i32 1, i32* %3, align 4
  br label %69

69:                                               ; preds = %112, %68
  %70 = load i32, i32* %3, align 4
  %71 = load i32, i32* %6, align 4
  %72 = icmp sle i32 %70, %71
  br i1 %72, label %73, label %115

73:                                               ; preds = %69
  %74 = load i32, i32* %5, align 4
  store i32 %74, i32* %4, align 4
  br label %75

75:                                               ; preds = %108, %73
  %76 = load i32, i32* %4, align 4
  %77 = icmp sge i32 %76, 1
  br i1 %77, label %78, label %111

78:                                               ; preds = %75
  %79 = load i32, i32* %4, align 4
  %80 = sext i32 %79 to i64
  %81 = getelementptr inbounds [101 x i32], [101 x i32]* %8, i64 0, i64 %80
  %82 = load i32, i32* %81, align 4
  %83 = load i32, i32* %3, align 4
  %84 = sext i32 %83 to i64
  %85 = getelementptr inbounds [101 x i32], [101 x i32]* %9, i64 0, i64 %84
  %86 = load i32, i32* %85, align 4
  %87 = icmp slt i32 %82, %86
  br i1 %87, label %88, label %107

88:                                               ; preds = %78
  %89 = load i32, i32* %3, align 4
  %90 = sext i32 %89 to i64
  %91 = getelementptr inbounds [101 x i32], [101 x i32]* %9, i64 0, i64 %90
  %92 = load i32, i32* %91, align 4
  %93 = sext i32 %92 to i64
  %94 = getelementptr inbounds [101 x i8], [101 x i8]* %2, i64 0, i64 %93
  store i8 32, i8* %94, align 1
  %95 = load i32, i32* %4, align 4
  %96 = sext i32 %95 to i64
  %97 = getelementptr inbounds [101 x i32], [101 x i32]* %8, i64 0, i64 %96
  %98 = load i32, i32* %97, align 4
  %99 = sext i32 %98 to i64
  %100 = getelementptr inbounds [101 x i8], [101 x i8]* %2, i64 0, i64 %99
  store i8 32, i8* %100, align 1
  %101 = load i32, i32* %3, align 4
  %102 = sext i32 %101 to i64
  %103 = getelementptr inbounds [101 x i32], [101 x i32]* %9, i64 0, i64 %102
  store i32 -1, i32* %103, align 4
  %104 = load i32, i32* %4, align 4
  %105 = sext i32 %104 to i64
  %106 = getelementptr inbounds [101 x i32], [101 x i32]* %8, i64 0, i64 %105
  store i32 101, i32* %106, align 4
  br label %111

107:                                              ; preds = %78
  br label %108

108:                                              ; preds = %107
  %109 = load i32, i32* %4, align 4
  %110 = add nsw i32 %109, -1
  store i32 %110, i32* %4, align 4
  br label %75

111:                                              ; preds = %88, %75
  br label %112

112:                                              ; preds = %111
  %113 = load i32, i32* %3, align 4
  %114 = add nsw i32 %113, 1
  store i32 %114, i32* %3, align 4
  br label %69

115:                                              ; preds = %69
  store i32 1, i32* %4, align 4
  br label %116

116:                                              ; preds = %134, %115
  %117 = load i32, i32* %4, align 4
  %118 = load i32, i32* %5, align 4
  %119 = icmp sle i32 %117, %118
  br i1 %119, label %120, label %137

120:                                              ; preds = %116
  %121 = load i32, i32* %4, align 4
  %122 = sext i32 %121 to i64
  %123 = getelementptr inbounds [101 x i32], [101 x i32]* %8, i64 0, i64 %122
  %124 = load i32, i32* %123, align 4
  %125 = icmp ne i32 %124, 101
  br i1 %125, label %126, label %133

126:                                              ; preds = %120
  %127 = load i32, i32* %4, align 4
  %128 = sext i32 %127 to i64
  %129 = getelementptr inbounds [101 x i32], [101 x i32]* %8, i64 0, i64 %128
  %130 = load i32, i32* %129, align 4
  %131 = sext i32 %130 to i64
  %132 = getelementptr inbounds [101 x i8], [101 x i8]* %2, i64 0, i64 %131
  store i8 36, i8* %132, align 1
  br label %133

133:                                              ; preds = %126, %120
  br label %134

134:                                              ; preds = %133
  %135 = load i32, i32* %4, align 4
  %136 = add nsw i32 %135, 1
  store i32 %136, i32* %4, align 4
  br label %116

137:                                              ; preds = %116
  store i32 1, i32* %3, align 4
  br label %138

138:                                              ; preds = %156, %137
  %139 = load i32, i32* %3, align 4
  %140 = load i32, i32* %6, align 4
  %141 = icmp sle i32 %139, %140
  br i1 %141, label %142, label %159

142:                                              ; preds = %138
  %143 = load i32, i32* %3, align 4
  %144 = sext i32 %143 to i64
  %145 = getelementptr inbounds [101 x i32], [101 x i32]* %9, i64 0, i64 %144
  %146 = load i32, i32* %145, align 4
  %147 = icmp ne i32 %146, -1
  br i1 %147, label %148, label %155

148:                                              ; preds = %142
  %149 = load i32, i32* %3, align 4
  %150 = sext i32 %149 to i64
  %151 = getelementptr inbounds [101 x i32], [101 x i32]* %9, i64 0, i64 %150
  %152 = load i32, i32* %151, align 4
  %153 = sext i32 %152 to i64
  %154 = getelementptr inbounds [101 x i8], [101 x i8]* %2, i64 0, i64 %153
  store i8 63, i8* %154, align 1
  br label %155

155:                                              ; preds = %148, %142
  br label %156

156:                                              ; preds = %155
  %157 = load i32, i32* %3, align 4
  %158 = add nsw i32 %157, 1
  store i32 %158, i32* %3, align 4
  br label %138

159:                                              ; preds = %138
  %160 = getelementptr inbounds [101 x i8], [101 x i8]* %2, i64 0, i64 0
  %161 = call i32 @puts(i8* %160)
  br label %10

162:                                              ; preds = %10
  ret i32 0
}

declare dso_local i32 @gets(...) #1

declare dso_local i32 @puts(i8*) #1

; Function Attrs: nounwind readonly
declare dso_local i64 @strlen(i8*) #2


!llvm.module.flags = !{!0}
!llvm.ident = !{!1}

!0 = !{i32 1, !"wchar_size", i32 4}
!1 = !{!"clang version 10.0.0-4ubuntu1 "}
